; Function Attrs: mustprogress uwtable
define hidden void @_ZN7datalog11rel_context15display_profileERSo(ptr noundef nonnull align 8 dereferenceable(432) %this, ptr noundef nonnull align 8 dereferenceable(8) %out) unnamed_addr #3 align 2 {
entry:
  %m_code = getelementptr inbounds i8, ptr %this, i64 408
  %m_ectx = getelementptr inbounds i8, ptr %this, i64 296
  tail call void @_ZN7datalog17instruction_block16make_annotationsERNS_17execution_contextE(ptr noundef nonnull align 8 dereferenceable(16) %m_code, ptr noundef nonnull align 8 dereferenceable(108) %m_ectx)
  tail call void @_ZN7datalog17instruction_block17process_all_costsEv(ptr noundef nonnull align 8 dereferenceable(16) %m_code)
  %call = tail call noundef nonnull align 8 dereferenceable(8) ptr @_ZStlsISt11char_traitsIcEERSt13basic_ostreamIcT_ES5_PKc(ptr noundef nonnull align 8 dereferenceable(8) %out, ptr noundef nonnull @.str.12)
  tail call void @_ZNK7datalog17execution_context20report_big_relationsEjRSo(ptr noundef nonnull align 8 dereferenceable(108) %m_ectx, i32 noundef 1000, ptr noundef nonnull align 8 dereferenceable(8) %out)
  %vtable = load ptr, ptr %this, align 8
  %vfn = getelementptr inbounds i8, ptr %vtable, i64 192
  %0 = load ptr, ptr %vfn, align 8
  %call4 = tail call noundef nonnull align 8 dereferenceable(200) ptr %0(ptr noundef nonnull align 8 dereferenceable(432) %this)
  tail call void @_ZNK7datalog16relation_manager22display_relation_sizesERSo(ptr noundef nonnull align 8 dereferenceable(200) %call4, ptr noundef nonnull align 8 dereferenceable(8) %out)
  ret void
}